; ModuleID = 'source-C-CXX/14/1326.c'
source_filename = "source-C-CXX/14/1326.c"
target datalayout = "e-m:e-p270:32:32-p271:32:32-p272:64:64-i64:64-f80:128-n8:16:32:64-S128"
target triple = "x86_64-pc-linux-gnu"

@.str = private unnamed_addr constant [3 x i8] c"%d\00", align 1
@sz = dso_local global [1000 x [1000 x i32]] zeroinitializer, align 16

; Function Attrs: nofree nounwind sspstrong uwtable
define dso_local i32 @main() local_unnamed_addr #0 {
  %1 = alloca i32, align 4
  %2 = alloca [5000 x i32], align 16
  %3 = alloca [5000 x i32], align 16
  %4 = bitcast i32* %1 to i8*
  call void @llvm.lifetime.start.p0i8(i64 4, i8* nonnull %4) #3
  %5 = bitcast [5000 x i32]* %2 to i8*
  call void @llvm.lifetime.start.p0i8(i64 20000, i8* nonnull %5) #3
  %6 = bitcast [5000 x i32]* %3 to i8*
  call void @llvm.lifetime.start.p0i8(i64 20000, i8* nonnull %6) #3
  %7 = call i32 (i8*, ...) @__isoc99_scanf(i8* getelementptr inbounds ([3 x i8], [3 x i8]* @.str, i64 0, i64 0), i32* nonnull %1)
  %8 = load i32, i32* %1, align 4, !tbaa !5
  %9 = icmp sgt i32 %8, 0
  br i1 %9, label %10, label %17

10:                                               ; preds = %0, %35
  %11 = phi i32 [ %36, %35 ], [ %8, %0 ]
  %12 = phi i64 [ %39, %35 ], [ 0, %0 ]
  %13 = phi i32 [ %37, %35 ], [ 0, %0 ]
  %14 = icmp sgt i32 %11, 0
  br i1 %14, label %15, label %35

15:                                               ; preds = %10
  %16 = trunc i64 %12 to i32
  br label %41

17:                                               ; preds = %35, %0
  %18 = phi i32 [ 0, %0 ], [ %37, %35 ]
  %19 = add nsw i32 %18, -1
  %20 = sext i32 %19 to i64
  %21 = getelementptr inbounds [5000 x i32], [5000 x i32]* %2, i64 0, i64 %20
  %22 = load i32, i32* %21, align 4, !tbaa !5
  %23 = getelementptr inbounds [5000 x i32], [5000 x i32]* %2, i64 0, i64 0
  %24 = load i32, i32* %23, align 16, !tbaa !5
  %25 = xor i32 %24, -1
  %26 = add i32 %22, %25
  %27 = getelementptr inbounds [5000 x i32], [5000 x i32]* %3, i64 0, i64 %20
  %28 = load i32, i32* %27, align 4, !tbaa !5
  %29 = getelementptr inbounds [5000 x i32], [5000 x i32]* %3, i64 0, i64 0
  %30 = load i32, i32* %29, align 16, !tbaa !5
  %31 = xor i32 %30, -1
  %32 = add i32 %28, %31
  %33 = mul nsw i32 %32, %26
  %34 = call i32 (i8*, ...) @printf(i8* nonnull dereferenceable(1) getelementptr inbounds ([3 x i8], [3 x i8]* @.str, i64 0, i64 0), i32 %33)
  call void @llvm.lifetime.end.p0i8(i64 20000, i8* nonnull %6) #3
  call void @llvm.lifetime.end.p0i8(i64 20000, i8* nonnull %5) #3
  call void @llvm.lifetime.end.p0i8(i64 4, i8* nonnull %4) #3
  ret i32 0

35:                                               ; preds = %54, %10
  %36 = phi i32 [ %11, %10 ], [ %57, %54 ]
  %37 = phi i32 [ %13, %10 ], [ %55, %54 ]
  %38 = sext i32 %36 to i64
  %39 = add nuw nsw i64 %12, 1
  %40 = icmp slt i64 %39, %38
  br i1 %40, label %10, label %17, !llvm.loop !9

41:                                               ; preds = %15, %54
  %42 = phi i64 [ 0, %15 ], [ %56, %54 ]
  %43 = phi i32 [ %13, %15 ], [ %55, %54 ]
  %44 = getelementptr inbounds [1000 x [1000 x i32]], [1000 x [1000 x i32]]* @sz, i64 0, i64 %12, i64 %42
  %45 = call i32 (i8*, ...) @__isoc99_scanf(i8* getelementptr inbounds ([3 x i8], [3 x i8]* @.str, i64 0, i64 0), i32* nonnull %44)
  %46 = load i32, i32* %44, align 4, !tbaa !5
  %47 = icmp eq i32 %46, 0
  br i1 %47, label %48, label %54

48:                                               ; preds = %41
  %49 = sext i32 %43 to i64
  %50 = getelementptr inbounds [5000 x i32], [5000 x i32]* %2, i64 0, i64 %49
  store i32 %16, i32* %50, align 4, !tbaa !5
  %51 = getelementptr inbounds [5000 x i32], [5000 x i32]* %3, i64 0, i64 %49
  %52 = trunc i64 %42 to i32
  store i32 %52, i32* %51, align 4, !tbaa !5
  %53 = add nsw i32 %43, 1
  br label %54

54:                                               ; preds = %41, %48
  %55 = phi i32 [ %53, %48 ], [ %43, %41 ]
  %56 = add nuw nsw i64 %42, 1
  %57 = load i32, i32* %1, align 4, !tbaa !5
  %58 = sext i32 %57 to i64
  %59 = icmp slt i64 %56, %58
  br i1 %59, label %41, label %35, !llvm.loop !12
}

; Function Attrs: argmemonly mustprogress nofree nosync nounwind willreturn
declare void @llvm.lifetime.start.p0i8(i64 immarg, i8* nocapture) #1

; Function Attrs: nofree nounwind
declare noundef i32 @__isoc99_scanf(i8* nocapture noundef readonly, ...) local_unnamed_addr #2

; Function Attrs: argmemonly mustprogress nofree nosync nounwind willreturn
declare void @llvm.lifetime.end.p0i8(i64 immarg, i8* nocapture) #1

; Function Attrs: nofree nounwind
declare noundef i32 @printf(i8* nocapture noundef readonly, ...) local_unnamed_addr #2


!llvm.module.flags = !{!0, !1, !2, !3}
!llvm.ident = !{!4}

!0 = !{i32 1, !"wchar_size", i32 4}
!1 = !{i32 7, !"PIC Level", i32 2}
!2 = !{i32 7, !"PIE Level", i32 2}
!3 = !{i32 7, !"uwtable", i32 1}
!4 = !{!"clang version 13.0.0"}
!5 = !{!6, !6, i64 0}
!6 = !{!"int", !7, i64 0}
!7 = !{!"omnipotent char", !8, i64 0}
!8 = !{!"Simple C/C++ TBAA"}
!9 = distinct !{!9, !10, !11}
!10 = !{!"llvm.loop.mustprogress"}
!11 = !{!"llvm.loop.unswitch.partial.disable"}
!12 = distinct !{!12, !10}
